; Function Attrs: nounwind uwtable
define internal fastcc ptr @math_1a(ptr noundef %0, ptr noundef readonly captures(none) %1, ptr noundef %2) unnamed_addr #0 {
  %4 = tail call double @PyFloat_AsDouble(ptr noundef %0) #16
  %5 = fcmp oeq double %4, -1.000000e+00
  br i1 %5, label %6, label %8

6:                                                ; preds = %3
  %7 = tail call ptr @PyErr_Occurred() #16
  %.not = icmp eq ptr %7, null
  br i1 %.not, label %8, label %30

8:                                                ; preds = %6, %3
  %9 = tail call ptr @__errno_location() #17
  store i32 0, ptr %9, align 4, !tbaa !14
  %10 = tail call double %1(double noundef %4) #16, !callees !36
  %11 = load i32, ptr %9, align 4, !tbaa !14
  %.not16 = icmp eq i32 %11, 0
  br i1 %.not16, label %is_error.exit, label %12

12:                                               ; preds = %8
  %.not17.not = icmp eq ptr %2, null
  switch i32 %11, label %20 [
    i32 33, label %13
    i32 34, label %15
  ]

13:                                               ; preds = %12
  br i1 %.not17.not, label %.thread, label %.critedge.thread

.thread:                                          ; preds = %13
  %14 = load ptr, ptr @PyExc_ValueError, align 8, !tbaa !12
  tail call void @PyErr_SetString(ptr noundef %14, ptr noundef nonnull @.str.60) #16
  br label %30

15:                                               ; preds = %12
  %16 = tail call double @llvm.fabs.f64(double %10)
  %17 = fcmp olt double %16, 1.500000e+00
  br i1 %17, label %is_error.exit, label %18

18:                                               ; preds = %15
  %19 = load ptr, ptr @PyExc_OverflowError, align 8, !tbaa !12
  tail call void @PyErr_SetString(ptr noundef %19, ptr noundef nonnull @.str.59) #16
  br label %23

20:                                               ; preds = %12
  %21 = load ptr, ptr @PyExc_ValueError, align 8, !tbaa !12
  %22 = tail call ptr @PyErr_SetFromErrno(ptr noundef %21) #16
  br label %23

23:                                               ; preds = %18, %20
  br i1 %.not17.not, label %30, label %.critedge

.critedge:                                        ; preds = %23
  %.pre = load i32, ptr %9, align 4, !tbaa !14
  %24 = icmp eq i32 %.pre, 33
  br i1 %24, label %.critedge.thread, label %30

.critedge.thread:                                 ; preds = %13, %.critedge
  %25 = tail call ptr @PyOS_double_to_string(double noundef %4, i8 noundef signext 114, i32 noundef 0, i32 noundef 2, ptr noundef null) #16
  %.not19 = icmp eq ptr %25, null
  br i1 %.not19, label %30, label %26

26:                                               ; preds = %.critedge.thread
  %27 = load ptr, ptr @PyExc_ValueError, align 8, !tbaa !12
  %28 = tail call ptr (ptr, ptr, ...) @PyErr_Format(ptr noundef %27, ptr noundef nonnull %2, ptr noundef nonnull %25) #16
  tail call void @PyMem_Free(ptr noundef nonnull %25) #16
  br label %30

is_error.exit:                                    ; preds = %15, %8
  %29 = tail call ptr @PyFloat_FromDouble(double noundef %10) #16
  br label %30

30:                                               ; preds = %.thread, %23, %.critedge, %26, %.critedge.thread, %6, %is_error.exit
  %.0 = phi ptr [ %29, %is_error.exit ], [ null, %6 ], [ null, %.critedge.thread ], [ null, %26 ], [ null, %.critedge ], [ null, %23 ], [ null, %.thread ]
  ret ptr %.0
}